target datalayout = "e-m:e-p270:32:32-p271:32:32-p272:64:64-i64:64-i128:128-f80:128-n8:16:32:64-S128"
target triple = "x86_64-pc-linux-gnu"

%struct.SUNStepper_ = type { ptr, ptr, ptr, i32 }

; Function Attrs: nounwind uwtable
define internal i32 @arkSUNStepperEvolveHelper(ptr noundef %0, double noundef %1, ptr noundef %2, ptr noundef %3, i32 noundef %4) #0 {
  %6 = alloca i32, align 4
  %7 = alloca ptr, align 8
  %8 = alloca double, align 8
  %9 = alloca ptr, align 8
  %10 = alloca ptr, align 8
  %11 = alloca i32, align 4
  %12 = alloca ptr, align 8
  %13 = alloca ptr, align 8
  %14 = alloca i32, align 4
  store ptr %0, ptr %7, align 8, !tbaa !23
  store double %1, ptr %8, align 8, !tbaa !26
  store ptr %2, ptr %9, align 8, !tbaa !27
  store ptr %3, ptr %10, align 8, !tbaa !28
  store i32 %4, ptr %11, align 4, !tbaa !22
  call void @llvm.lifetime.start.p0(i64 8, ptr %12) #3
  %15 = load ptr, ptr %7, align 8, !tbaa !23
  %16 = getelementptr inbounds nuw %struct.SUNStepper_, ptr %15, i32 0, i32 2
  %17 = load ptr, ptr %16, align 8, !tbaa !30
  store ptr %17, ptr %12, align 8, !tbaa !33
  call void @llvm.lifetime.start.p0(i64 8, ptr %13) #3
  %18 = load ptr, ptr %7, align 8, !tbaa !23
  %19 = call i32 @SUNStepper_GetContent(ptr noundef %18, ptr noundef %13)
  %20 = load ptr, ptr %13, align 8, !tbaa !3
  %21 = load double, ptr %8, align 8, !tbaa !26
  %22 = load ptr, ptr %9, align 8, !tbaa !27
  %23 = load ptr, ptr %10, align 8, !tbaa !28
  %24 = load i32, ptr %11, align 4, !tbaa !22
  %25 = call i32 @ARKodeEvolve(ptr noundef %20, double noundef %21, ptr noundef %22, ptr noundef %23, i32 noundef %24)
  %26 = load ptr, ptr %7, align 8, !tbaa !23
  %27 = getelementptr inbounds nuw %struct.SUNStepper_, ptr %26, i32 0, i32 3
  store i32 %25, ptr %27, align 8, !tbaa !35
  %28 = load ptr, ptr %7, align 8, !tbaa !23
  %29 = getelementptr inbounds nuw %struct.SUNStepper_, ptr %28, i32 0, i32 3
  %30 = load i32, ptr %29, align 8, !tbaa !35
  %31 = icmp slt i32 %30, 0
  br i1 %31, label %32, label %33

32:                                               ; preds = %5
  store i32 -9990, ptr %6, align 4
  store i32 1, ptr %14, align 4
  br label %34

33:                                               ; preds = %5
  store i32 0, ptr %6, align 4
  store i32 1, ptr %14, align 4
  br label %34

34:                                               ; preds = %33, %32
  call void @llvm.lifetime.end.p0(i64 8, ptr %13) #3
  call void @llvm.lifetime.end.p0(i64 8, ptr %12) #3
  %35 = load i32, ptr %6, align 4
  ret i32 %35
}

; Function Attrs: nounwind uwtable
define internal i32 @arkSUNStepperOneStep(ptr noundef %0, double noundef %1, ptr noundef %2, ptr noundef %3) #0 {
  %5 = alloca ptr, align 8
  %6 = alloca double, align 8
  %7 = alloca ptr, align 8
  %8 = alloca ptr, align 8
  store ptr %0, ptr %5, align 8, !tbaa !23
  store double %1, ptr %6, align 8, !tbaa !26
  store ptr %2, ptr %7, align 8, !tbaa !27
  store ptr %3, ptr %8, align 8, !tbaa !28
  %9 = load ptr, ptr %5, align 8, !tbaa !23
  %10 = load double, ptr %6, align 8, !tbaa !26
  %11 = load ptr, ptr %7, align 8, !tbaa !27
  %12 = load ptr, ptr %8, align 8, !tbaa !28
  %13 = call i32 @arkSUNStepperEvolveHelper(ptr noundef %9, double noundef %10, ptr noundef %11, ptr noundef %12, i32 noundef 2)
  ret i32 %13
}